target datalayout = "e-m:e-p270:32:32-p271:32:32-p272:64:64-i64:64-i128:128-f80:128-n8:16:32:64-S128"
target triple = "x86_64-pc-linux-gnu"

%struct.wtap = type { ptr, ptr, i8, i32, i32, ptr, ptr, ptr, i32, ptr, ptr, ptr, ptr, ptr, ptr, ptr, ptr, ptr, ptr, i32, i32, ptr, ptr, ptr, ptr }

@iseries_hdr_magic_le_ucs_2 = internal constant [40 x i8] c"C\00O\00M\00M\00U\00N\00I\00C\00A\00T\00I\00O\00N\00S\00 \00T\00R\00A\00C\00E\00", align 16
@iseries_unicode_file_type_subtype = internal global i32 -1, align 4
@iseries_hdr_magic_ascii = internal constant [20 x i8] c"COMMUNICATIONS TRACE", align 16
@iseries_file_type_subtype = internal global i32 -1, align 4

; Function Attrs: null_pointer_is_valid sspstrong uwtable
define hidden i32 @iseries_open(ptr noundef %0, ptr noundef %1, ptr noundef %2) #0 {
  %4 = alloca i32, align 4
  %5 = alloca ptr, align 8
  %6 = alloca ptr, align 8
  %7 = alloca ptr, align 8
  %8 = alloca i32, align 4
  %9 = alloca [270 x i8], align 16
  %10 = alloca i32, align 4
  store ptr %0, ptr %5, align 8
  store ptr %1, ptr %6, align 8
  store ptr %2, ptr %7, align 8
  call void @llvm.lifetime.start.p0(i64 4, ptr %8) #13
  call void @llvm.lifetime.start.p0(i64 270, ptr %9) #13
  %11 = load ptr, ptr %5, align 8
  %12 = getelementptr inbounds nuw %struct.wtap, ptr %11, i32 0, i32 0
  %13 = load ptr, ptr %12, align 8
  %14 = load ptr, ptr %6, align 8
  %15 = load ptr, ptr %7, align 8
  %16 = call zeroext i1 @wtap_read_bytes(ptr noundef %13, ptr noundef %9, i32 noundef 270, ptr noundef %14, ptr noundef %15)
  br i1 %16, label %23, label %17

17:                                               ; preds = %3
  %18 = load ptr, ptr %6, align 8
  %19 = load i32, ptr %18, align 4
  %20 = icmp ne i32 %19, -12
  br i1 %20, label %21, label %22

21:                                               ; preds = %17
  store i32 -1, ptr %4, align 4
  store i32 1, ptr %10, align 4
  br label %138

22:                                               ; preds = %17
  store i32 0, ptr %4, align 4
  store i32 1, ptr %10, align 4
  br label %138

23:                                               ; preds = %3
  store i32 0, ptr %8, align 4
  br label %24

24:                                               ; preds = %77, %23
  %25 = load i32, ptr %8, align 4
  %26 = zext i32 %25 to i64
  %27 = icmp ult i64 %26, 230
  br i1 %27, label %28, label %80

28:                                               ; preds = %24
  %29 = getelementptr inbounds [270 x i8], ptr %9, i64 0, i64 0
  %30 = load i32, ptr %8, align 4
  %31 = sext i32 %30 to i64
  %32 = getelementptr i8, ptr %29, i64 %31
  %33 = call i32 @memcmp(ptr noundef %32, ptr noundef @iseries_hdr_magic_le_ucs_2, i64 noundef 40) #14
  %34 = icmp eq i32 %33, 0
  br i1 %34, label %35, label %77

35:                                               ; preds = %28
  %36 = load ptr, ptr %5, align 8
  %37 = getelementptr inbounds nuw %struct.wtap, ptr %36, i32 0, i32 0
  %38 = load ptr, ptr %37, align 8
  %39 = load ptr, ptr %6, align 8
  %40 = call i64 @file_seek(ptr noundef %38, i64 noundef 0, i32 noundef 0, ptr noundef %39)
  %41 = icmp eq i64 %40, -1
  br i1 %41, label %42, label %43

42:                                               ; preds = %35
  store i32 -1, ptr %4, align 4
  store i32 1, ptr %10, align 4
  br label %138

43:                                               ; preds = %35
  %44 = load ptr, ptr %5, align 8
  %45 = load ptr, ptr %6, align 8
  %46 = load ptr, ptr %7, align 8
  %47 = call zeroext i1 @iseries_check_file_type(ptr noundef %44, ptr noundef %45, ptr noundef %46, i32 noundef 2)
  br i1 %47, label %54, label %48

48:                                               ; preds = %43
  %49 = load ptr, ptr %6, align 8
  %50 = load i32, ptr %49, align 4
  %51 = icmp eq i32 %50, 0
  br i1 %51, label %52, label %53

52:                                               ; preds = %48
  store i32 0, ptr %4, align 4
  store i32 1, ptr %10, align 4
  br label %138

53:                                               ; preds = %48
  store i32 -1, ptr %4, align 4
  store i32 1, ptr %10, align 4
  br label %138

54:                                               ; preds = %43
  %55 = load ptr, ptr %5, align 8
  %56 = getelementptr inbounds nuw %struct.wtap, ptr %55, i32 0, i32 19
  store i32 1, ptr %56, align 8
  %57 = load i32, ptr @iseries_unicode_file_type_subtype, align 4
  %58 = load ptr, ptr %5, align 8
  %59 = getelementptr inbounds nuw %struct.wtap, ptr %58, i32 0, i32 3
  store i32 %57, ptr %59, align 4
  %60 = load ptr, ptr %5, align 8
  %61 = getelementptr inbounds nuw %struct.wtap, ptr %60, i32 0, i32 4
  store i32 0, ptr %61, align 8
  %62 = load ptr, ptr %5, align 8
  %63 = getelementptr inbounds nuw %struct.wtap, ptr %62, i32 0, i32 15
  store ptr @iseries_read, ptr %63, align 8
  %64 = load ptr, ptr %5, align 8
  %65 = getelementptr inbounds nuw %struct.wtap, ptr %64, i32 0, i32 16
  store ptr @iseries_seek_read, ptr %65, align 8
  %66 = load ptr, ptr %5, align 8
  %67 = getelementptr inbounds nuw %struct.wtap, ptr %66, i32 0, i32 20
  store i32 6, ptr %67, align 4
  %68 = load ptr, ptr %5, align 8
  %69 = getelementptr inbounds nuw %struct.wtap, ptr %68, i32 0, i32 0
  %70 = load ptr, ptr %69, align 8
  %71 = load ptr, ptr %6, align 8
  %72 = call i64 @file_seek(ptr noundef %70, i64 noundef 0, i32 noundef 0, ptr noundef %71)
  %73 = icmp eq i64 %72, -1
  br i1 %73, label %74, label %75

74:                                               ; preds = %54
  store i32 -1, ptr %4, align 4
  store i32 1, ptr %10, align 4
  br label %138

75:                                               ; preds = %54
  %76 = load ptr, ptr %5, align 8
  call void @wtap_add_generated_idb(ptr noundef %76)
  store i32 1, ptr %4, align 4
  store i32 1, ptr %10, align 4
  br label %138

77:                                               ; preds = %28
  %78 = load i32, ptr %8, align 4
  %79 = add i32 %78, 1
  store i32 %79, ptr %8, align 4
  br label %24, !llvm.loop !6

80:                                               ; preds = %24
  store i32 0, ptr %8, align 4
  br label %81

81:                                               ; preds = %134, %80
  %82 = load i32, ptr %8, align 4
  %83 = zext i32 %82 to i64
  %84 = icmp ult i64 %83, 250
  br i1 %84, label %85, label %137

85:                                               ; preds = %81
  %86 = getelementptr inbounds [270 x i8], ptr %9, i64 0, i64 0
  %87 = load i32, ptr %8, align 4
  %88 = sext i32 %87 to i64
  %89 = getelementptr i8, ptr %86, i64 %88
  %90 = call i32 @memcmp(ptr noundef %89, ptr noundef @iseries_hdr_magic_ascii, i64 noundef 20) #14
  %91 = icmp eq i32 %90, 0
  br i1 %91, label %92, label %134

92:                                               ; preds = %85
  %93 = load ptr, ptr %5, align 8
  %94 = getelementptr inbounds nuw %struct.wtap, ptr %93, i32 0, i32 0
  %95 = load ptr, ptr %94, align 8
  %96 = load ptr, ptr %6, align 8
  %97 = call i64 @file_seek(ptr noundef %95, i64 noundef 0, i32 noundef 0, ptr noundef %96)
  %98 = icmp eq i64 %97, -1
  br i1 %98, label %99, label %100

99:                                               ; preds = %92
  store i32 -1, ptr %4, align 4
  store i32 1, ptr %10, align 4
  br label %138

100:                                              ; preds = %92
  %101 = load ptr, ptr %5, align 8
  %102 = load ptr, ptr %6, align 8
  %103 = load ptr, ptr %7, align 8
  %104 = call zeroext i1 @iseries_check_file_type(ptr noundef %101, ptr noundef %102, ptr noundef %103, i32 noundef 1)
  br i1 %104, label %111, label %105

105:                                              ; preds = %100
  %106 = load ptr, ptr %6, align 8
  %107 = load i32, ptr %106, align 4
  %108 = icmp eq i32 %107, 0
  br i1 %108, label %109, label %110

109:                                              ; preds = %105
  store i32 0, ptr %4, align 4
  store i32 1, ptr %10, align 4
  br label %138

110:                                              ; preds = %105
  store i32 -1, ptr %4, align 4
  store i32 1, ptr %10, align 4
  br label %138

111:                                              ; preds = %100
  %112 = load ptr, ptr %5, align 8
  %113 = getelementptr inbounds nuw %struct.wtap, ptr %112, i32 0, i32 19
  store i32 1, ptr %113, align 8
  %114 = load i32, ptr @iseries_file_type_subtype, align 4
  %115 = load ptr, ptr %5, align 8
  %116 = getelementptr inbounds nuw %struct.wtap, ptr %115, i32 0, i32 3
  store i32 %114, ptr %116, align 4
  %117 = load ptr, ptr %5, align 8
  %118 = getelementptr inbounds nuw %struct.wtap, ptr %117, i32 0, i32 4
  store i32 0, ptr %118, align 8
  %119 = load ptr, ptr %5, align 8
  %120 = getelementptr inbounds nuw %struct.wtap, ptr %119, i32 0, i32 15
  store ptr @iseries_read, ptr %120, align 8
  %121 = load ptr, ptr %5, align 8
  %122 = getelementptr inbounds nuw %struct.wtap, ptr %121, i32 0, i32 16
  store ptr @iseries_seek_read, ptr %122, align 8
  %123 = load ptr, ptr %5, align 8
  %124 = getelementptr inbounds nuw %struct.wtap, ptr %123, i32 0, i32 20
  store i32 6, ptr %124, align 4
  %125 = load ptr, ptr %5, align 8
  %126 = getelementptr inbounds nuw %struct.wtap, ptr %125, i32 0, i32 0
  %127 = load ptr, ptr %126, align 8
  %128 = load ptr, ptr %6, align 8
  %129 = call i64 @file_seek(ptr noundef %127, i64 noundef 0, i32 noundef 0, ptr noundef %128)
  %130 = icmp eq i64 %129, -1
  br i1 %130, label %131, label %132

131:                                              ; preds = %111
  store i32 -1, ptr %4, align 4
  store i32 1, ptr %10, align 4
  br label %138

132:                                              ; preds = %111
  %133 = load ptr, ptr %5, align 8
  call void @wtap_add_generated_idb(ptr noundef %133)
  store i32 1, ptr %4, align 4
  store i32 1, ptr %10, align 4
  br label %138

134:                                              ; preds = %85
  %135 = load i32, ptr %8, align 4
  %136 = add i32 %135, 1
  store i32 %136, ptr %8, align 4
  br label %81, !llvm.loop !8

137:                                              ; preds = %81
  store i32 0, ptr %4, align 4
  store i32 1, ptr %10, align 4
  br label %138

138:                                              ; preds = %137, %132, %131, %110, %109, %99, %75, %74, %53, %52, %42, %22, %21
  call void @llvm.lifetime.end.p0(i64 270, ptr %9) #13
  call void @llvm.lifetime.end.p0(i64 4, ptr %8) #13
  %139 = load i32, ptr %4, align 4
  ret i32 %139
}