; Function Attrs: null_pointer_is_valid sspstrong uwtable
define hidden range(i32 -1, 2) i32 @iseries_open(ptr noundef %0, ptr noundef %1, ptr noundef %2) local_unnamed_addr #0 {
  %4 = alloca [270 x i8], align 16
  call void @llvm.lifetime.start.p0(i64 270, ptr nonnull %4) #13
  %5 = load ptr, ptr %0, align 8
  %6 = call zeroext i1 @wtap_read_bytes(ptr noundef %5, ptr noundef nonnull %4, i32 noundef 270, ptr noundef %1, ptr noundef %2)
  br i1 %6, label %.preheader44, label %7

7:                                                ; preds = %3
  %8 = load i32, ptr %1, align 4
  %.not = icmp ne i32 %8, -12
  %. = sext i1 %.not to i32
  br label %.loopexit

9:                                                ; preds = %.preheader44
  %indvars.iv.next = add nuw nsw i64 %indvars.iv, 1
  %exitcond.not = icmp eq i64 %indvars.iv.next, 230
  br i1 %exitcond.not, label %.preheader, label %.preheader44, !llvm.loop !6

.preheader44:                                     ; preds = %3, %9
  %indvars.iv = phi i64 [ %indvars.iv.next, %9 ], [ 0, %3 ]
  %10 = getelementptr i8, ptr %4, i64 %indvars.iv
  %bcmp41 = call i32 @bcmp(ptr noundef dereferenceable(40) %10, ptr noundef nonnull dereferenceable(40) @iseries_hdr_magic_le_ucs_2, i64 40)
  %11 = icmp eq i32 %bcmp41, 0
  br i1 %11, label %12, label %9

12:                                               ; preds = %.preheader44
  %13 = load ptr, ptr %0, align 8
  %14 = call i64 @file_seek(ptr noundef %13, i64 noundef 0, i32 noundef 0, ptr noundef %1)
  %15 = icmp eq i64 %14, -1
  br i1 %15, label %.loopexit, label %16

16:                                               ; preds = %12
  %17 = call fastcc zeroext i1 @iseries_check_file_type(ptr noundef %0, ptr noundef %1, ptr noundef %2, i32 noundef 2)
  br i1 %17, label %21, label %18

18:                                               ; preds = %16
  %19 = load i32, ptr %1, align 4
  %20 = icmp ne i32 %19, 0
  %.42 = sext i1 %20 to i32
  br label %.loopexit

21:                                               ; preds = %16
  %22 = getelementptr inbounds nuw i8, ptr %0, i64 144
  store i32 1, ptr %22, align 8
  %23 = load i32, ptr @iseries_unicode_file_type_subtype, align 4
  %24 = getelementptr inbounds nuw i8, ptr %0, i64 20
  store i32 %23, ptr %24, align 4
  %25 = getelementptr inbounds nuw i8, ptr %0, i64 24
  store i32 0, ptr %25, align 8
  %26 = getelementptr inbounds nuw i8, ptr %0, i64 112
  store ptr @iseries_read, ptr %26, align 8
  %27 = getelementptr inbounds nuw i8, ptr %0, i64 120
  store ptr @iseries_seek_read, ptr %27, align 8
  %28 = getelementptr inbounds nuw i8, ptr %0, i64 148
  store i32 6, ptr %28, align 4
  %29 = load ptr, ptr %0, align 8
  %30 = call i64 @file_seek(ptr noundef %29, i64 noundef 0, i32 noundef 0, ptr noundef %1)
  %31 = icmp eq i64 %30, -1
  br i1 %31, label %.loopexit, label %32

32:                                               ; preds = %21
  call void @wtap_add_generated_idb(ptr noundef %0)
  br label %.loopexit

33:                                               ; preds = %.preheader
  %indvars.iv.next49 = add nuw nsw i64 %indvars.iv48, 1
  %exitcond51.not = icmp eq i64 %indvars.iv.next49, 250
  br i1 %exitcond51.not, label %.loopexit, label %.preheader, !llvm.loop !8

.preheader:                                       ; preds = %9, %33
  %indvars.iv48 = phi i64 [ %indvars.iv.next49, %33 ], [ 0, %9 ]
  %34 = getelementptr i8, ptr %4, i64 %indvars.iv48
  %bcmp = call i32 @bcmp(ptr noundef dereferenceable(20) %34, ptr noundef nonnull dereferenceable(20) @iseries_hdr_magic_ascii, i64 20)
  %35 = icmp eq i32 %bcmp, 0
  br i1 %35, label %36, label %33

36:                                               ; preds = %.preheader
  %37 = load ptr, ptr %0, align 8
  %38 = call i64 @file_seek(ptr noundef %37, i64 noundef 0, i32 noundef 0, ptr noundef %1)
  %39 = icmp eq i64 %38, -1
  br i1 %39, label %.loopexit, label %40

40:                                               ; preds = %36
  %41 = call fastcc zeroext i1 @iseries_check_file_type(ptr noundef %0, ptr noundef %1, ptr noundef %2, i32 noundef 1)
  br i1 %41, label %45, label %42

42:                                               ; preds = %40
  %43 = load i32, ptr %1, align 4
  %44 = icmp ne i32 %43, 0
  %.43 = sext i1 %44 to i32
  br label %.loopexit

45:                                               ; preds = %40
  %46 = getelementptr inbounds nuw i8, ptr %0, i64 144
  store i32 1, ptr %46, align 8
  %47 = load i32, ptr @iseries_file_type_subtype, align 4
  %48 = getelementptr inbounds nuw i8, ptr %0, i64 20
  store i32 %47, ptr %48, align 4
  %49 = getelementptr inbounds nuw i8, ptr %0, i64 24
  store i32 0, ptr %49, align 8
  %50 = getelementptr inbounds nuw i8, ptr %0, i64 112
  store ptr @iseries_read, ptr %50, align 8
  %51 = getelementptr inbounds nuw i8, ptr %0, i64 120
  store ptr @iseries_seek_read, ptr %51, align 8
  %52 = getelementptr inbounds nuw i8, ptr %0, i64 148
  store i32 6, ptr %52, align 4
  %53 = load ptr, ptr %0, align 8
  %54 = call i64 @file_seek(ptr noundef %53, i64 noundef 0, i32 noundef 0, ptr noundef %1)
  %55 = icmp eq i64 %54, -1
  br i1 %55, label %.loopexit, label %56

56:                                               ; preds = %45
  call void @wtap_add_generated_idb(ptr noundef %0)
  br label %.loopexit

.loopexit:                                        ; preds = %33, %45, %42, %36, %21, %18, %12, %7, %56, %32
  %.040 = phi i32 [ 1, %32 ], [ 1, %56 ], [ %., %7 ], [ -1, %12 ], [ %.42, %18 ], [ -1, %21 ], [ -1, %36 ], [ %.43, %42 ], [ -1, %45 ], [ 0, %33 ]
  call void @llvm.lifetime.end.p0(i64 270, ptr nonnull %4) #13
  ret i32 %.040
}